; Function Attrs: nounwind uwtable
define zeroext range(i8 0, 2) i8 @l_Lean_Elab_FixedParamPerms_fixedArePrefix(ptr noundef readonly captures(none) %0) local_unnamed_addr #1 {
lean_nat_lt.exit:
  %1 = getelementptr inbounds nuw i8, ptr %0, i64 16
  %2 = load ptr, ptr %1, align 8, !tbaa !9
  %3 = getelementptr i8, ptr %2, i64 8
  %.val = load i64, ptr %3, align 8, !tbaa !12
  %.mask = and i64 %.val, 9223372036854775807
  %.not = icmp eq i64 %.mask, 0
  br i1 %.not, label %lean_dec.exit16, label %lean_dec.exit

lean_dec.exit:                                    ; preds = %lean_nat_lt.exit
  %4 = tail call zeroext i8 @l_Array_anyMUnsafe_any___at_Lean_Elab_FixedParamPerms_fixedArePrefix___spec__3(ptr noundef nonnull %0, ptr noundef nonnull %2, i64 noundef 0, i64 noundef %.mask)
  %. = xor i8 %4, 1
  br label %lean_dec.exit16

lean_dec.exit16:                                  ; preds = %lean_nat_lt.exit, %lean_dec.exit
  %.0 = phi i8 [ %., %lean_dec.exit ], [ 1, %lean_nat_lt.exit ]
  ret i8 %.0
}